; Function Attrs: mustprogress nofree norecurse nosync nounwind willreturn memory(read, inaccessiblemem: none) uwtable
define hidden noundef i32 @_ZN11realclosure7manager23get_sign_condition_signERKNS_3numEj(ptr noundef nonnull readonly align 8 captures(none) dereferenceable(8) %0, ptr noundef nonnull readonly align 8 captures(none) dereferenceable(8) %1, i32 noundef %2) local_unnamed_addr #9 align 2 {
  %4 = load ptr, ptr %1, align 8, !tbaa !84
  %5 = getelementptr inbounds nuw i8, ptr %4, i64 4
  %6 = load i8, ptr %5, align 4, !tbaa !61, !range !105, !noundef !106
  %7 = trunc nuw i8 %6 to i1
  br i1 %7, label %_ZN11realclosure7manager3imp23get_sign_condition_signERKNS_3numEj.exit, label %_ZN11realclosure7manager3imp12is_algebraicERKNS_3numE.exit.i

_ZN11realclosure7manager3imp12is_algebraicERKNS_3numE.exit.i: ; preds = %3
  %8 = getelementptr inbounds nuw i8, ptr %4, i64 88
  %9 = load ptr, ptr %8, align 8, !tbaa !108
  %10 = getelementptr inbounds nuw i8, ptr %9, i64 4
  %11 = load i32, ptr %10, align 4
  %12 = and i32 %11, 3
  %13 = icmp eq i32 %12, 2
  br i1 %13, label %14, label %_ZN11realclosure7manager3imp23get_sign_condition_signERKNS_3numEj.exit

14:                                               ; preds = %_ZN11realclosure7manager3imp12is_algebraicERKNS_3numE.exit.i
  %15 = getelementptr inbounds nuw i8, ptr %9, i64 136
  %16 = load ptr, ptr %15, align 8, !tbaa !145
  %.not.i = icmp eq ptr %16, null
  br i1 %.not.i, label %_ZN11realclosure7manager3imp23get_sign_condition_signERKNS_3numEj.exit, label %17

17:                                               ; preds = %14
  %18 = getelementptr inbounds nuw i8, ptr %9, i64 144
  %19 = load i32, ptr %18, align 8, !tbaa !149
  %20 = getelementptr inbounds nuw i8, ptr %16, i64 40
  %21 = load ptr, ptr %20, align 8, !tbaa !150
  %22 = zext i32 %19 to i64
  %23 = getelementptr inbounds nuw ptr, ptr %21, i64 %22
  %24 = load ptr, ptr %23, align 8, !tbaa !153
  %.not1720.i = icmp eq i32 %2, 0
  br i1 %.not1720.i, label %._crit_edge.i, label %.lr.ph.i

.lr.ph.i:                                         ; preds = %17, %28
  %.022.i = phi ptr [ %.1.i, %28 ], [ %24, %17 ]
  %.01521.i = phi i32 [ %29, %28 ], [ %2, %17 ]
  %.not19.i = icmp eq ptr %.022.i, null
  br i1 %.not19.i, label %28, label %25

25:                                               ; preds = %.lr.ph.i
  %26 = getelementptr inbounds nuw i8, ptr %.022.i, i64 8
  %27 = load ptr, ptr %26, align 8, !tbaa !156
  br label %28

28:                                               ; preds = %25, %.lr.ph.i
  %.1.i = phi ptr [ %27, %25 ], [ null, %.lr.ph.i ]
  %29 = add i32 %.01521.i, -1
  %.not17.i = icmp eq i32 %29, 0
  br i1 %.not17.i, label %._crit_edge.i, label %.lr.ph.i, !llvm.loop !158

._crit_edge.i:                                    ; preds = %28, %17
  %.0.lcssa.i = phi ptr [ %24, %17 ], [ %.1.i, %28 ]
  %.not18.i = icmp eq ptr %.0.lcssa.i, null
  br i1 %.not18.i, label %_ZN11realclosure7manager3imp23get_sign_condition_signERKNS_3numEj.exit, label %30

30:                                               ; preds = %._crit_edge.i
  %31 = getelementptr inbounds nuw i8, ptr %.0.lcssa.i, i64 4
  %32 = load i32, ptr %31, align 4, !tbaa !159
  br label %_ZN11realclosure7manager3imp23get_sign_condition_signERKNS_3numEj.exit

_ZN11realclosure7manager3imp23get_sign_condition_signERKNS_3numEj.exit: ; preds = %3, %_ZN11realclosure7manager3imp12is_algebraicERKNS_3numE.exit.i, %14, %._crit_edge.i, %30
  %.013.i = phi i32 [ 0, %_ZN11realclosure7manager3imp12is_algebraicERKNS_3numE.exit.i ], [ 0, %14 ], [ %32, %30 ], [ 0, %._crit_edge.i ], [ 0, %3 ]
  ret i32 %.013.i
}